target datalayout = "e-m:e-p270:32:32-p271:32:32-p272:64:64-i64:64-i128:128-f80:128-n8:16:32:64-S128"
target triple = "x86_64-pc-linux-gnu"

%"class.cv::_InputArray" = type { i32, ptr, %"class.cv::Size_" }
%"class.cv::Size_" = type { i32, i32 }
%"class.cv::Mat" = type { i32, i32, i32, i32, ptr, ptr, ptr, ptr, ptr, ptr, %"struct.cv::MatSize", %"struct.cv::MatStep" }
%"struct.cv::MatSize" = type { ptr }
%"struct.cv::MatStep" = type { ptr, [2 x i64] }

; Function Attrs: inlinehint mustprogress nounwind uwtable
define linkonce_odr hidden noundef nonnull align 4 dereferenceable(4) ptr @_ZN2cv3Mat2atIfEERT_ii(ptr noundef nonnull align 8 dereferenceable(96) %0, i32 noundef %1, i32 noundef %2) #6 comdat align 2 {
  %4 = alloca ptr, align 8
  %5 = alloca i32, align 4
  %6 = alloca i32, align 4
  store ptr %0, ptr %4, align 8, !tbaa !47
  store i32 %1, ptr %5, align 4, !tbaa !35
  store i32 %2, ptr %6, align 4, !tbaa !35
  %7 = load ptr, ptr %4, align 8
  %8 = getelementptr inbounds nuw %"class.cv::Mat", ptr %7, i32 0, i32 4
  %9 = load ptr, ptr %8, align 8, !tbaa !57
  %10 = getelementptr inbounds nuw %"class.cv::Mat", ptr %7, i32 0, i32 11
  %11 = getelementptr inbounds nuw %"struct.cv::MatStep", ptr %10, i32 0, i32 0
  %12 = load ptr, ptr %11, align 8, !tbaa !66
  %13 = getelementptr inbounds i64, ptr %12, i64 0
  %14 = load i64, ptr %13, align 8, !tbaa !67
  %15 = load i32, ptr %5, align 4, !tbaa !35
  %16 = sext i32 %15 to i64
  %17 = mul i64 %14, %16
  %18 = getelementptr inbounds nuw i8, ptr %9, i64 %17
  %19 = load i32, ptr %6, align 4, !tbaa !35
  %20 = sext i32 %19 to i64
  %21 = getelementptr inbounds float, ptr %18, i64 %20
  ret ptr %21
}

; Function Attrs: inlinehint mustprogress nounwind uwtable
define linkonce_odr hidden noundef nonnull align 1 dereferenceable(1) ptr @_ZN2cv3Mat2atIhEERT_ii(ptr noundef nonnull align 8 dereferenceable(96) %0, i32 noundef %1, i32 noundef %2) #6 comdat align 2 {
  %4 = alloca ptr, align 8
  %5 = alloca i32, align 4
  %6 = alloca i32, align 4
  store ptr %0, ptr %4, align 8, !tbaa !47
  store i32 %1, ptr %5, align 4, !tbaa !35
  store i32 %2, ptr %6, align 4, !tbaa !35
  %7 = load ptr, ptr %4, align 8
  %8 = getelementptr inbounds nuw %"class.cv::Mat", ptr %7, i32 0, i32 4
  %9 = load ptr, ptr %8, align 8, !tbaa !57
  %10 = getelementptr inbounds nuw %"class.cv::Mat", ptr %7, i32 0, i32 11
  %11 = getelementptr inbounds nuw %"struct.cv::MatStep", ptr %10, i32 0, i32 0
  %12 = load ptr, ptr %11, align 8, !tbaa !66
  %13 = getelementptr inbounds i64, ptr %12, i64 0
  %14 = load i64, ptr %13, align 8, !tbaa !67
  %15 = load i32, ptr %5, align 4, !tbaa !35
  %16 = sext i32 %15 to i64
  %17 = mul i64 %14, %16
  %18 = getelementptr inbounds nuw i8, ptr %9, i64 %17
  %19 = load i32, ptr %6, align 4, !tbaa !35
  %20 = sext i32 %19 to i64
  %21 = getelementptr inbounds i8, ptr %18, i64 %20
  ret ptr %21
}

; Function Attrs: inlinehint mustprogress nounwind uwtable
define linkonce_odr hidden noundef ptr @_ZNK2cv11_InputArray6getObjEv(ptr noundef nonnull align 8 dereferenceable(24) %0) #6 comdat align 2 {
  %2 = alloca ptr, align 8
  store ptr %0, ptr %2, align 8, !tbaa !52
  %3 = load ptr, ptr %2, align 8
  %4 = getelementptr inbounds nuw %"class.cv::_InputArray", ptr %3, i32 0, i32 1
  %5 = load ptr, ptr %4, align 8, !tbaa !54
  ret ptr %5
}

; Function Attrs: mustprogress uwtable
define void @_ZN2cv16structured_light34SinusoidalPatternProfilometry_Impl17computeFtPhaseMapERKNS_11_InputArrayES4_RKNS_12_OutputArrayE(ptr noundef nonnull align 8 dereferenceable(88) %0, ptr noundef nonnull align 8 dereferenceable(24) %1, ptr noundef nonnull align 8 dereferenceable(24) %2, ptr noundef nonnull align 8 dereferenceable(24) %3) #5 align 2 personality ptr @__gxx_personality_v0 {
  %5 = alloca ptr, align 8
  %6 = alloca ptr, align 8
  %7 = alloca ptr, align 8
  %8 = alloca ptr, align 8
  %9 = alloca ptr, align 8
  %10 = alloca ptr, align 8
  %11 = alloca ptr, align 8
  %12 = alloca [2 x %"class.cv::Mat"], align 16
  %13 = alloca i32, align 4
  %14 = alloca i32, align 4
  %15 = alloca ptr, align 8
  %16 = alloca i32, align 4
  %17 = alloca i32, align 4
  %18 = alloca i32, align 4
  %19 = alloca i32, align 4
  %20 = alloca float, align 4
  %21 = alloca float, align 4
  store ptr %0, ptr %5, align 8, !tbaa !69
  store ptr %1, ptr %6, align 8, !tbaa !52
  store ptr %2, ptr %7, align 8, !tbaa !52
  store ptr %3, ptr %8, align 8, !tbaa !45
  call void @llvm.lifetime.start.p0(i64 8, ptr %9) #3
  %22 = load ptr, ptr %6, align 8, !tbaa !52
  %23 = call noundef ptr @_ZNK2cv11_InputArray6getObjEv(ptr noundef nonnull align 8 dereferenceable(24) %22)
  store ptr %23, ptr %9, align 8, !tbaa !47
  call void @llvm.lifetime.start.p0(i64 8, ptr %10) #3
  %24 = load ptr, ptr %8, align 8, !tbaa !45
  %25 = call noundef ptr @_ZNK2cv11_InputArray6getObjEv(ptr noundef nonnull align 8 dereferenceable(24) %24)
  store ptr %25, ptr %10, align 8, !tbaa !47
  call void @llvm.lifetime.start.p0(i64 8, ptr %11) #3
  %26 = load ptr, ptr %7, align 8, !tbaa !52
  %27 = call noundef ptr @_ZNK2cv11_InputArray6getObjEv(ptr noundef nonnull align 8 dereferenceable(24) %26)
  store ptr %27, ptr %11, align 8, !tbaa !47
  call void @llvm.lifetime.start.p0(i64 192, ptr %12) #3
  %28 = getelementptr inbounds [2 x %"class.cv::Mat"], ptr %12, i32 0, i32 0
  %29 = getelementptr inbounds %"class.cv::Mat", ptr %28, i64 2
  br label %30

30:                                               ; preds = %30, %4
  %31 = phi ptr [ %28, %4 ], [ %32, %30 ]
  call void @_ZN2cv3MatC1Ev(ptr noundef nonnull align 8 dereferenceable(96) %31) #3
  %32 = getelementptr inbounds %"class.cv::Mat", ptr %31, i64 1
  %33 = icmp eq ptr %32, %29
  br i1 %33, label %34, label %30

34:                                               ; preds = %30
  call void @llvm.lifetime.start.p0(i64 4, ptr %13) #3
  %35 = load ptr, ptr %9, align 8, !tbaa !47
  %36 = getelementptr inbounds nuw %"class.cv::Mat", ptr %35, i32 0, i32 2
  %37 = load i32, ptr %36, align 8, !tbaa !96
  store i32 %37, ptr %13, align 4, !tbaa !35
  call void @llvm.lifetime.start.p0(i64 4, ptr %14) #3
  %38 = load ptr, ptr %9, align 8, !tbaa !47
  %39 = getelementptr inbounds nuw %"class.cv::Mat", ptr %38, i32 0, i32 3
  %40 = load i32, ptr %39, align 4, !tbaa !93
  store i32 %40, ptr %14, align 4, !tbaa !35
  %41 = load ptr, ptr %10, align 8, !tbaa !47
  %42 = invoke noundef zeroext i1 @_ZNK2cv3Mat5emptyEv(ptr noundef nonnull align 8 dereferenceable(96) %41)
          to label %43 unwind label %49

43:                                               ; preds = %34
  br i1 %42, label %44, label %53

44:                                               ; preds = %43
  %45 = load ptr, ptr %10, align 8, !tbaa !47
  %46 = load i32, ptr %13, align 4, !tbaa !35
  %47 = load i32, ptr %14, align 4, !tbaa !35
  invoke void @_ZN2cv3Mat6createEiii(ptr noundef nonnull align 8 dereferenceable(96) %45, i32 noundef %46, i32 noundef %47, i32 noundef 5)
          to label %48 unwind label %49

48:                                               ; preds = %44
  br label %53

49:                                               ; preds = %53, %44, %34
  %50 = landingpad { ptr, i32 }
          cleanup
  %51 = extractvalue { ptr, i32 } %50, 0
  store ptr %51, ptr %15, align 8
  %52 = extractvalue { ptr, i32 } %50, 1
  store i32 %52, ptr %16, align 4
  br label %137

53:                                               ; preds = %48, %43
  %54 = load ptr, ptr %9, align 8, !tbaa !47
  %55 = getelementptr inbounds [2 x %"class.cv::Mat"], ptr %12, i64 0, i64 0
  invoke void @_ZN2cv5splitERKNS_3MatEPS0_(ptr noundef nonnull align 8 dereferenceable(96) %54, ptr noundef %55)
          to label %56 unwind label %49

56:                                               ; preds = %53
  call void @llvm.lifetime.start.p0(i64 4, ptr %17) #3
  store i32 0, ptr %17, align 4, !tbaa !35
  br label %57

57:                                               ; preds = %126, %56
  %58 = load i32, ptr %17, align 4, !tbaa !35
  %59 = load i32, ptr %13, align 4, !tbaa !35
  %60 = icmp slt i32 %58, %59
  br i1 %60, label %62, label %61

61:                                               ; preds = %57
  store i32 2, ptr %18, align 4
  call void @llvm.lifetime.end.p0(i64 4, ptr %17) #3
  br label %129

62:                                               ; preds = %57
  call void @llvm.lifetime.start.p0(i64 4, ptr %19) #3
  store i32 0, ptr %19, align 4, !tbaa !35
  br label %63

63:                                               ; preds = %121, %62
  %64 = load i32, ptr %19, align 4, !tbaa !35
  %65 = load i32, ptr %14, align 4, !tbaa !35
  %66 = icmp slt i32 %64, %65
  br i1 %66, label %68, label %67

67:                                               ; preds = %63
  store i32 5, ptr %18, align 4
  call void @llvm.lifetime.end.p0(i64 4, ptr %19) #3
  br label %125

68:                                               ; preds = %63
  %69 = load ptr, ptr %11, align 8, !tbaa !47
  %70 = load i32, ptr %17, align 4, !tbaa !35
  %71 = load i32, ptr %19, align 4, !tbaa !35
  %72 = invoke noundef nonnull align 1 dereferenceable(1) ptr @_ZN2cv3Mat2atIhEERT_ii(ptr noundef nonnull align 8 dereferenceable(96) %69, i32 noundef %70, i32 noundef %71)
          to label %73 unwind label %101

73:                                               ; preds = %68
  %74 = load i8, ptr %72, align 1, !tbaa !51
  %75 = zext i8 %74 to i32
  %76 = icmp ne i32 %75, 0
  br i1 %76, label %77, label %114

77:                                               ; preds = %73
  call void @llvm.lifetime.start.p0(i64 4, ptr %20) #3
  %78 = getelementptr inbounds [2 x %"class.cv::Mat"], ptr %12, i64 0, i64 1
  %79 = load i32, ptr %17, align 4, !tbaa !35
  %80 = load i32, ptr %19, align 4, !tbaa !35
  %81 = invoke noundef nonnull align 4 dereferenceable(4) ptr @_ZN2cv3Mat2atIfEERT_ii(ptr noundef nonnull align 8 dereferenceable(96) %78, i32 noundef %79, i32 noundef %80)
          to label %82 unwind label %105

82:                                               ; preds = %77
  %83 = load float, ptr %81, align 4, !tbaa !77
  store float %83, ptr %20, align 4, !tbaa !77
  call void @llvm.lifetime.start.p0(i64 4, ptr %21) #3
  %84 = getelementptr inbounds [2 x %"class.cv::Mat"], ptr %12, i64 0, i64 0
  %85 = load i32, ptr %17, align 4, !tbaa !35
  %86 = load i32, ptr %19, align 4, !tbaa !35
  %87 = invoke noundef nonnull align 4 dereferenceable(4) ptr @_ZN2cv3Mat2atIfEERT_ii(ptr noundef nonnull align 8 dereferenceable(96) %84, i32 noundef %85, i32 noundef %86)
          to label %88 unwind label %109

88:                                               ; preds = %82
  %89 = load float, ptr %87, align 4, !tbaa !77
  store float %89, ptr %21, align 4, !tbaa !77
  %90 = load float, ptr %21, align 4, !tbaa !77
  %91 = fpext float %90 to double
  %92 = load float, ptr %20, align 4, !tbaa !77
  %93 = fpext float %92 to double
  %94 = call double @atan2(double noundef %91, double noundef %93) #3, !tbaa !35
  %95 = fptrunc double %94 to float
  %96 = load ptr, ptr %10, align 8, !tbaa !47
  %97 = load i32, ptr %17, align 4, !tbaa !35
  %98 = load i32, ptr %19, align 4, !tbaa !35
  %99 = invoke noundef nonnull align 4 dereferenceable(4) ptr @_ZN2cv3Mat2atIfEERT_ii(ptr noundef nonnull align 8 dereferenceable(96) %96, i32 noundef %97, i32 noundef %98)
          to label %100 unwind label %109

100:                                              ; preds = %88
  store float %95, ptr %99, align 4, !tbaa !77
  call void @llvm.lifetime.end.p0(i64 4, ptr %21) #3
  call void @llvm.lifetime.end.p0(i64 4, ptr %20) #3
  br label %120

101:                                              ; preds = %114, %68
  %102 = landingpad { ptr, i32 }
          cleanup
  %103 = extractvalue { ptr, i32 } %102, 0
  store ptr %103, ptr %15, align 8
  %104 = extractvalue { ptr, i32 } %102, 1
  store i32 %104, ptr %16, align 4
  br label %124

105:                                              ; preds = %77
  %106 = landingpad { ptr, i32 }
          cleanup
  %107 = extractvalue { ptr, i32 } %106, 0
  store ptr %107, ptr %15, align 8
  %108 = extractvalue { ptr, i32 } %106, 1
  store i32 %108, ptr %16, align 4
  br label %113

109:                                              ; preds = %88, %82
  %110 = landingpad { ptr, i32 }
          cleanup
  %111 = extractvalue { ptr, i32 } %110, 0
  store ptr %111, ptr %15, align 8
  %112 = extractvalue { ptr, i32 } %110, 1
  store i32 %112, ptr %16, align 4
  call void @llvm.lifetime.end.p0(i64 4, ptr %21) #3
  br label %113

113:                                              ; preds = %109, %105
  call void @llvm.lifetime.end.p0(i64 4, ptr %20) #3
  br label %124

114:                                              ; preds = %73
  %115 = load ptr, ptr %10, align 8, !tbaa !47
  %116 = load i32, ptr %17, align 4, !tbaa !35
  %117 = load i32, ptr %19, align 4, !tbaa !35
  %118 = invoke noundef nonnull align 4 dereferenceable(4) ptr @_ZN2cv3Mat2atIfEERT_ii(ptr noundef nonnull align 8 dereferenceable(96) %115, i32 noundef %116, i32 noundef %117)
          to label %119 unwind label %101

119:                                              ; preds = %114
  store float 0.000000e+00, ptr %118, align 4, !tbaa !77
  br label %120

120:                                              ; preds = %119, %100
  br label %121

121:                                              ; preds = %120
  %122 = load i32, ptr %19, align 4, !tbaa !35
  %123 = add nsw i32 %122, 1
  store i32 %123, ptr %19, align 4, !tbaa !35
  br label %63, !llvm.loop !132

124:                                              ; preds = %113, %101
  call void @llvm.lifetime.end.p0(i64 4, ptr %19) #3
  call void @llvm.lifetime.end.p0(i64 4, ptr %17) #3
  br label %137

125:                                              ; preds = %67
  br label %126

126:                                              ; preds = %125
  %127 = load i32, ptr %17, align 4, !tbaa !35
  %128 = add nsw i32 %127, 1
  store i32 %128, ptr %17, align 4, !tbaa !35
  br label %57, !llvm.loop !133

129:                                              ; preds = %61
  call void @llvm.lifetime.end.p0(i64 4, ptr %14) #3
  call void @llvm.lifetime.end.p0(i64 4, ptr %13) #3
  %130 = getelementptr inbounds [2 x %"class.cv::Mat"], ptr %12, i32 0, i32 0
  %131 = getelementptr inbounds %"class.cv::Mat", ptr %130, i64 2
  br label %132

132:                                              ; preds = %132, %129
  %133 = phi ptr [ %131, %129 ], [ %134, %132 ]
  %134 = getelementptr inbounds %"class.cv::Mat", ptr %133, i64 -1
  call void @_ZN2cv3MatD1Ev(ptr noundef nonnull align 8 dereferenceable(96) %134) #3
  %135 = icmp eq ptr %134, %130
  br i1 %135, label %136, label %132

136:                                              ; preds = %132
  call void @llvm.lifetime.end.p0(i64 192, ptr %12) #3
  call void @llvm.lifetime.end.p0(i64 8, ptr %11) #3
  call void @llvm.lifetime.end.p0(i64 8, ptr %10) #3
  call void @llvm.lifetime.end.p0(i64 8, ptr %9) #3
  ret void

137:                                              ; preds = %124, %49
  call void @llvm.lifetime.end.p0(i64 4, ptr %14) #3
  call void @llvm.lifetime.end.p0(i64 4, ptr %13) #3
  %138 = getelementptr inbounds [2 x %"class.cv::Mat"], ptr %12, i32 0, i32 0
  %139 = getelementptr inbounds %"class.cv::Mat", ptr %138, i64 2
  br label %140

140:                                              ; preds = %140, %137
  %141 = phi ptr [ %139, %137 ], [ %142, %140 ]
  %142 = getelementptr inbounds %"class.cv::Mat", ptr %141, i64 -1
  call void @_ZN2cv3MatD1Ev(ptr noundef nonnull align 8 dereferenceable(96) %142) #3
  %143 = icmp eq ptr %142, %138
  br i1 %143, label %144, label %140

144:                                              ; preds = %140
  call void @llvm.lifetime.end.p0(i64 192, ptr %12) #3
  call void @llvm.lifetime.end.p0(i64 8, ptr %11) #3
  call void @llvm.lifetime.end.p0(i64 8, ptr %10) #3
  call void @llvm.lifetime.end.p0(i64 8, ptr %9) #3
  br label %145

145:                                              ; preds = %144
  %146 = load ptr, ptr %15, align 8
  %147 = load i32, ptr %16, align 4
  %148 = insertvalue { ptr, i32 } poison, ptr %146, 0
  %149 = insertvalue { ptr, i32 } %148, i32 %147, 1
  resume { ptr, i32 } %149
}