; Function Attrs: mustprogress uwtable
define void @_ZN2cv16structured_light34SinusoidalPatternProfilometry_Impl17computeFtPhaseMapERKNS_11_InputArrayES4_RKNS_12_OutputArrayE(ptr nonnull readnone align 8 captures(none) %0, ptr noundef nonnull readonly align 8 captures(none) dereferenceable(24) %1, ptr noundef nonnull readonly align 8 captures(none) dereferenceable(24) %2, ptr noundef nonnull readonly align 8 captures(none) dereferenceable(24) %3) local_unnamed_addr #7 align 2 personality ptr @__gxx_personality_v0 {
  %5 = alloca [2 x %"class.cv::Mat"], align 16
  %6 = getelementptr inbounds nuw i8, ptr %1, i64 8
  %7 = load ptr, ptr %6, align 8, !tbaa !34
  %8 = getelementptr inbounds nuw i8, ptr %3, i64 8
  %9 = load ptr, ptr %8, align 8, !tbaa !34
  %10 = getelementptr inbounds nuw i8, ptr %2, i64 8
  %11 = load ptr, ptr %10, align 8, !tbaa !34
  call void @llvm.lifetime.start.p0(i64 192, ptr nonnull %5) #32
  br label %12

12:                                               ; preds = %12, %4
  %.idx = phi i64 [ 0, %4 ], [ %.add, %12 ]
  %.ptr = getelementptr inbounds nuw i8, ptr %5, i64 %.idx
  call void @_ZN2cv3MatC1Ev(ptr noundef nonnull align 8 dereferenceable(96) %.ptr) #32
  %.add = add nuw nsw i64 %.idx, 96
  %13 = icmp eq i64 %.add, 192
  br i1 %13, label %14, label %12

14:                                               ; preds = %12
  %15 = getelementptr inbounds nuw i8, ptr %5, i64 192
  %16 = getelementptr inbounds nuw i8, ptr %7, i64 8
  %17 = load i32, ptr %16, align 8, !tbaa !96
  %18 = getelementptr inbounds nuw i8, ptr %7, i64 12
  %19 = load i32, ptr %18, align 4, !tbaa !95
  %20 = invoke noundef zeroext i1 @_ZNK2cv3Mat5emptyEv(ptr noundef nonnull align 8 dereferenceable(96) %9)
          to label %21 unwind label %23

21:                                               ; preds = %14
  br i1 %20, label %22, label %25

22:                                               ; preds = %21
  invoke void @_ZN2cv3Mat6createEiii(ptr noundef nonnull align 8 dereferenceable(96) %9, i32 noundef %17, i32 noundef %19, i32 noundef 5)
          to label %25 unwind label %23

23:                                               ; preds = %25, %22, %14
  %24 = landingpad { ptr, i32 }
          cleanup
  br label %74

25:                                               ; preds = %22, %21
  invoke void @_ZN2cv5splitERKNS_3MatEPS0_(ptr noundef nonnull align 8 dereferenceable(96) %7, ptr noundef nonnull %5)
          to label %.preheader37 unwind label %23

.preheader37:                                     ; preds = %25
  %26 = icmp sgt i32 %17, 0
  br i1 %26, label %.preheader36.lr.ph, label %.preheader.preheader

.preheader36.lr.ph:                               ; preds = %.preheader37
  %27 = icmp sgt i32 %19, 0
  %28 = getelementptr inbounds nuw i8, ptr %5, i64 112
  %29 = getelementptr inbounds nuw i8, ptr %5, i64 168
  %30 = getelementptr inbounds nuw i8, ptr %5, i64 16
  %31 = getelementptr inbounds nuw i8, ptr %5, i64 72
  %32 = getelementptr inbounds nuw i8, ptr %9, i64 16
  %33 = getelementptr inbounds nuw i8, ptr %9, i64 72
  br i1 %27, label %.preheader36.lr.ph.split.us, label %.preheader.preheader

.preheader36.lr.ph.split.us:                      ; preds = %.preheader36.lr.ph
  %34 = getelementptr inbounds nuw i8, ptr %11, i64 72
  %35 = getelementptr inbounds nuw i8, ptr %11, i64 16
  %36 = load ptr, ptr %35, align 8, !tbaa !39
  %37 = load ptr, ptr %34, align 8, !tbaa !48
  %38 = load i64, ptr %37, align 8, !tbaa !49
  %wide.trip.count45 = zext nneg i32 %17 to i64
  %wide.trip.count = zext nneg i32 %19 to i64
  %39 = load ptr, ptr %32, align 8, !tbaa !39
  %40 = load ptr, ptr %33, align 8, !tbaa !48
  %41 = load i64, ptr %40, align 8, !tbaa !49
  br label %.preheader36.us

.preheader36.us:                                  ; preds = %._crit_edge.us, %.preheader36.lr.ph.split.us
  %indvars.iv42 = phi i64 [ %indvars.iv.next43, %._crit_edge.us ], [ 0, %.preheader36.lr.ph.split.us ]
  %42 = mul i64 %38, %indvars.iv42
  %43 = getelementptr inbounds nuw i8, ptr %36, i64 %42
  %44 = load ptr, ptr %28, align 16
  %45 = load ptr, ptr %29, align 8
  %46 = load ptr, ptr %30, align 16
  %47 = load ptr, ptr %31, align 8
  %48 = mul i64 %41, %indvars.iv42
  %49 = getelementptr inbounds nuw i8, ptr %39, i64 %48
  br label %50

50:                                               ; preds = %.preheader36.us, %68
  %indvars.iv = phi i64 [ 0, %.preheader36.us ], [ %indvars.iv.next, %68 ]
  %51 = getelementptr inbounds nuw i8, ptr %43, i64 %indvars.iv
  %52 = load i8, ptr %51, align 1, !tbaa !51
  %.not.us = icmp eq i8 %52, 0
  br i1 %.not.us, label %68, label %53

53:                                               ; preds = %50
  %54 = load i64, ptr %45, align 8, !tbaa !49
  %55 = mul i64 %54, %indvars.iv42
  %56 = getelementptr inbounds nuw i8, ptr %44, i64 %55
  %57 = getelementptr inbounds nuw float, ptr %56, i64 %indvars.iv
  %58 = load float, ptr %57, align 4, !tbaa !122
  %59 = load i64, ptr %47, align 8, !tbaa !49
  %60 = mul i64 %59, %indvars.iv42
  %61 = getelementptr inbounds nuw i8, ptr %46, i64 %60
  %62 = getelementptr inbounds nuw float, ptr %61, i64 %indvars.iv
  %63 = load float, ptr %62, align 4, !tbaa !122
  %64 = fpext float %63 to double
  %65 = fpext float %58 to double
  %66 = call double @atan2(double noundef %64, double noundef %65) #32, !tbaa !23
  %67 = fptrunc double %66 to float
  br label %68

68:                                               ; preds = %50, %53
  %.sink = phi float [ %67, %53 ], [ 0.000000e+00, %50 ]
  %69 = getelementptr inbounds nuw float, ptr %49, i64 %indvars.iv
  store float %.sink, ptr %69, align 4, !tbaa !122
  %indvars.iv.next = add nuw nsw i64 %indvars.iv, 1
  %exitcond.not = icmp eq i64 %indvars.iv.next, %wide.trip.count
  br i1 %exitcond.not, label %._crit_edge.us, label %50, !llvm.loop !138

._crit_edge.us:                                   ; preds = %68
  %indvars.iv.next43 = add nuw nsw i64 %indvars.iv42, 1
  %exitcond46.not = icmp eq i64 %indvars.iv.next43, %wide.trip.count45
  br i1 %exitcond46.not, label %.preheader.preheader, label %.preheader36.us, !llvm.loop !139

.preheader.preheader:                             ; preds = %._crit_edge.us, %.preheader36.lr.ph, %.preheader37
  br label %.preheader

.preheader:                                       ; preds = %.preheader.preheader, %.preheader
  %70 = phi ptr [ %71, %.preheader ], [ %15, %.preheader.preheader ]
  %71 = getelementptr inbounds i8, ptr %70, i64 -96
  call void @_ZN2cv3MatD1Ev(ptr noundef nonnull align 8 dereferenceable(96) %71) #32
  %72 = icmp eq ptr %71, %5
  br i1 %72, label %73, label %.preheader

73:                                               ; preds = %.preheader
  call void @llvm.lifetime.end.p0(i64 192, ptr nonnull %5) #32
  ret void

74:                                               ; preds = %74, %23
  %75 = phi ptr [ %15, %23 ], [ %76, %74 ]
  %76 = getelementptr inbounds i8, ptr %75, i64 -96
  call void @_ZN2cv3MatD1Ev(ptr noundef nonnull align 8 dereferenceable(96) %76) #32
  %77 = icmp eq ptr %76, %5
  br i1 %77, label %78, label %74

78:                                               ; preds = %74
  call void @llvm.lifetime.end.p0(i64 192, ptr nonnull %5) #32
  resume { ptr, i32 } %24
}